; ModuleID = '36/677.c'
source_filename = "36/677.c"
target datalayout = "e-m:e-p270:32:32-p271:32:32-p272:64:64-i64:64-f80:128-n8:16:32:64-S128"
target triple = "x86_64-pc-linux-gnu"

@.str = private unnamed_addr constant [5 x i8] c"%s%s\00", align 1
@.str.1 = private unnamed_addr constant [3 x i8] c"NO\00", align 1
@.str.2 = private unnamed_addr constant [4 x i8] c"YES\00", align 1

; Function Attrs: noinline nounwind uwtable
define dso_local void @main() #0 {
  %1 = alloca [100 x i8], align 16
  %2 = alloca [100 x i8], align 16
  %3 = alloca i32, align 4
  %4 = alloca i32, align 4
  %5 = alloca i32, align 4
  %6 = alloca i32, align 4
  %7 = alloca [100 x i32], align 16
  %8 = alloca [100 x i32], align 16
  %9 = alloca i32, align 4
  %10 = bitcast [100 x i32]* %7 to i8*
  call void @llvm.memset.p0i8.i64(i8* align 16 %10, i8 0, i64 400, i1 false)
  %11 = bitcast [100 x i32]* %8 to i8*
  call void @llvm.memset.p0i8.i64(i8* align 16 %11, i8 0, i64 400, i1 false)
  store i32 0, i32* %9, align 4
  %12 = call i32 (i8*, ...) @__isoc99_scanf(i8* getelementptr inbounds ([5 x i8], [5 x i8]* @.str, i64 0, i64 0), [100 x i8]* %1, [100 x i8]* %2)
  %13 = getelementptr inbounds [100 x i8], [100 x i8]* %1, i64 0, i64 0
  %14 = call i64 @strlen(i8* %13) #4
  %15 = trunc i64 %14 to i32
  store i32 %15, i32* %5, align 4
  %16 = getelementptr inbounds [100 x i8], [100 x i8]* %2, i64 0, i64 0
  %17 = call i64 @strlen(i8* %16) #4
  %18 = trunc i64 %17 to i32
  store i32 %18, i32* %6, align 4
  %19 = load i32, i32* %5, align 4
  %20 = load i32, i32* %6, align 4
  %21 = icmp ne i32 %19, %20
  br i1 %21, label %22, label %24

22:                                               ; preds = %0
  %23 = call i32 (i8*, ...) @printf(i8* getelementptr inbounds ([3 x i8], [3 x i8]* @.str.1, i64 0, i64 0))
  br label %92

24:                                               ; preds = %0
  store i32 0, i32* %3, align 4
  br label %25

25:                                               ; preds = %65, %24
  %26 = load i32, i32* %3, align 4
  %27 = load i32, i32* %5, align 4
  %28 = icmp slt i32 %26, %27
  br i1 %28, label %29, label %68

29:                                               ; preds = %25
  store i32 0, i32* %4, align 4
  br label %30

30:                                               ; preds = %61, %29
  %31 = load i32, i32* %4, align 4
  %32 = load i32, i32* %5, align 4
  %33 = icmp slt i32 %31, %32
  br i1 %33, label %34, label %64

34:                                               ; preds = %30
  %35 = load i32, i32* %4, align 4
  %36 = sext i32 %35 to i64
  %37 = getelementptr inbounds [100 x i32], [100 x i32]* %8, i64 0, i64 %36
  %38 = load i32, i32* %37, align 4
  %39 = icmp ne i32 %38, 0
  br i1 %39, label %40, label %41

40:                                               ; preds = %34
  br label %61

41:                                               ; preds = %34
  %42 = load i32, i32* %3, align 4
  %43 = sext i32 %42 to i64
  %44 = getelementptr inbounds [100 x i8], [100 x i8]* %1, i64 0, i64 %43
  %45 = load i8, i8* %44, align 1
  %46 = sext i8 %45 to i32
  %47 = load i32, i32* %4, align 4
  %48 = sext i32 %47 to i64
  %49 = getelementptr inbounds [100 x i8], [100 x i8]* %2, i64 0, i64 %48
  %50 = load i8, i8* %49, align 1
  %51 = sext i8 %50 to i32
  %52 = icmp eq i32 %46, %51
  br i1 %52, label %53, label %60

53:                                               ; preds = %41
  %54 = load i32, i32* %3, align 4
  %55 = sext i32 %54 to i64
  %56 = getelementptr inbounds [100 x i32], [100 x i32]* %7, i64 0, i64 %55
  store i32 1, i32* %56, align 4
  %57 = load i32, i32* %4, align 4
  %58 = sext i32 %57 to i64
  %59 = getelementptr inbounds [100 x i32], [100 x i32]* %8, i64 0, i64 %58
  store i32 1, i32* %59, align 4
  br label %64

60:                                               ; preds = %41
  br label %61

61:                                               ; preds = %60, %40
  %62 = load i32, i32* %4, align 4
  %63 = add nsw i32 %62, 1
  store i32 %63, i32* %4, align 4
  br label %30

64:                                               ; preds = %53, %30
  br label %65

65:                                               ; preds = %64
  %66 = load i32, i32* %3, align 4
  %67 = add nsw i32 %66, 1
  store i32 %67, i32* %3, align 4
  br label %25

68:                                               ; preds = %25
  store i32 0, i32* %3, align 4
  br label %69

69:                                               ; preds = %81, %68
  %70 = load i32, i32* %3, align 4
  %71 = load i32, i32* %5, align 4
  %72 = icmp slt i32 %70, %71
  br i1 %72, label %73, label %84

73:                                               ; preds = %69
  %74 = load i32, i32* %3, align 4
  %75 = sext i32 %74 to i64
  %76 = getelementptr inbounds [100 x i32], [100 x i32]* %7, i64 0, i64 %75
  %77 = load i32, i32* %76, align 4
  %78 = icmp eq i32 %77, 0
  br i1 %78, label %79, label %80

79:                                               ; preds = %73
  store i32 1, i32* %9, align 4
  br label %84

80:                                               ; preds = %73
  br label %81

81:                                               ; preds = %80
  %82 = load i32, i32* %3, align 4
  %83 = add nsw i32 %82, 1
  store i32 %83, i32* %3, align 4
  br label %69

84:                                               ; preds = %79, %69
  %85 = load i32, i32* %9, align 4
  %86 = icmp eq i32 %85, 0
  br i1 %86, label %87, label %89

87:                                               ; preds = %84
  %88 = call i32 (i8*, ...) @printf(i8* getelementptr inbounds ([4 x i8], [4 x i8]* @.str.2, i64 0, i64 0))
  br label %91

89:                                               ; preds = %84
  %90 = call i32 (i8*, ...) @printf(i8* getelementptr inbounds ([3 x i8], [3 x i8]* @.str.1, i64 0, i64 0))
  br label %91

91:                                               ; preds = %89, %87
  br label %92

92:                                               ; preds = %91, %22
  ret void
}

; Function Attrs: argmemonly nounwind willreturn
declare void @llvm.memset.p0i8.i64(i8* nocapture writeonly, i8, i64, i1 immarg) #1

declare dso_local i32 @__isoc99_scanf(i8*, ...) #2

; Function Attrs: nounwind readonly
declare dso_local i64 @strlen(i8*) #3

declare dso_local i32 @printf(i8*, ...) #2


!llvm.module.flags = !{!0}
!llvm.ident = !{!1}

!0 = !{i32 1, !"wchar_size", i32 4}
!1 = !{!"clang version 10.0.0-4ubuntu1 "}
